target datalayout = "e-m:e-p270:32:32-p271:32:32-p272:64:64-i64:64-i128:128-f80:128-n8:16:32:64-S128"
target triple = "x86_64-pc-linux-gnu"

%struct.PROV_ML_DSA_CTX = type { ptr, ptr, [255 x i8], i64, [32 x i8], i64, i32, i32, i32, [256 x i8], i64, i32 }

@.str = private unnamed_addr constant [60 x i8] c"../openssl/providers/implementations/signature/ml_dsa_sig.c\00", align 1
@.str.1 = private unnamed_addr constant [17 x i8] c"ML_DSA Sign Init\00", align 1
@__func__.ml_dsa_digest_signverify_init = private unnamed_addr constant [30 x i8] c"ml_dsa_digest_signverify_init\00", align 1
@.str.3 = private unnamed_addr constant [52 x i8] c"Explicit digest not supported for ML-DSA operations\00", align 1

; Function Attrs: nounwind uwtable
define internal i32 @ml_dsa_digest_signverify_init(ptr noundef %0, ptr noundef %1, ptr noundef %2, ptr noundef %3) #0 {
  %5 = alloca i32, align 4
  %6 = alloca ptr, align 8
  %7 = alloca ptr, align 8
  %8 = alloca ptr, align 8
  %9 = alloca ptr, align 8
  %10 = alloca ptr, align 8
  %11 = alloca i32, align 4
  store ptr %0, ptr %6, align 8, !tbaa !3
  store ptr %1, ptr %7, align 8, !tbaa !7
  store ptr %2, ptr %8, align 8, !tbaa !3
  store ptr %3, ptr %9, align 8, !tbaa !9
  call void @llvm.lifetime.start.p0(i64 8, ptr %10) #6
  %12 = load ptr, ptr %6, align 8, !tbaa !3
  store ptr %12, ptr %10, align 8, !tbaa !3
  %13 = load ptr, ptr %7, align 8, !tbaa !7
  %14 = icmp ne ptr %13, null
  br i1 %14, label %15, label %22

15:                                               ; preds = %4
  %16 = load ptr, ptr %7, align 8, !tbaa !7
  %17 = getelementptr inbounds i8, ptr %16, i64 0
  %18 = load i8, ptr %17, align 1, !tbaa !27
  %19 = sext i8 %18 to i32
  %20 = icmp ne i32 %19, 0
  br i1 %20, label %21, label %22

21:                                               ; preds = %15
  call void @ERR_new()
  call void @ERR_set_debug(ptr noundef @.str, i32 noundef 163, ptr noundef @__func__.ml_dsa_digest_signverify_init)
  call void (i32, i32, ptr, ...) @ERR_set_error(i32 noundef 57, i32 noundef 122, ptr noundef @.str.3)
  store i32 0, ptr %5, align 4
  store i32 1, ptr %11, align 4
  br label %41

22:                                               ; preds = %15, %4
  %23 = load ptr, ptr %10, align 8, !tbaa !3
  %24 = getelementptr inbounds nuw %struct.PROV_ML_DSA_CTX, ptr %23, i32 0, i32 11
  store i32 0, ptr %24, align 8, !tbaa !24
  %25 = load ptr, ptr %8, align 8, !tbaa !3
  %26 = icmp eq ptr %25, null
  br i1 %26, label %27, label %36

27:                                               ; preds = %22
  %28 = load ptr, ptr %10, align 8, !tbaa !3
  %29 = getelementptr inbounds nuw %struct.PROV_ML_DSA_CTX, ptr %28, i32 0, i32 0
  %30 = load ptr, ptr %29, align 8, !tbaa !23
  %31 = icmp ne ptr %30, null
  br i1 %31, label %32, label %36

32:                                               ; preds = %27
  %33 = load ptr, ptr %10, align 8, !tbaa !3
  %34 = load ptr, ptr %9, align 8, !tbaa !9
  %35 = call i32 @ml_dsa_set_ctx_params(ptr noundef %33, ptr noundef %34)
  store i32 %35, ptr %5, align 4
  store i32 1, ptr %11, align 4
  br label %41

36:                                               ; preds = %27, %22
  %37 = load ptr, ptr %6, align 8, !tbaa !3
  %38 = load ptr, ptr %8, align 8, !tbaa !3
  %39 = load ptr, ptr %9, align 8, !tbaa !9
  %40 = call i32 @ml_dsa_signverify_msg_init(ptr noundef %37, ptr noundef %38, ptr noundef %39, i32 noundef 16, ptr noundef @.str.1)
  store i32 %40, ptr %5, align 4
  store i32 1, ptr %11, align 4
  br label %41

41:                                               ; preds = %36, %32, %21
  call void @llvm.lifetime.end.p0(i64 8, ptr %10) #6
  %42 = load i32, ptr %5, align 4
  ret i32 %42
}