; Function Attrs: nounwind uwtable
define internal range(i32 0, 2) i32 @ml_dsa_digest_signverify_init(ptr noundef %0, ptr noundef readonly captures(address_is_null) %1, ptr noundef %2, ptr noundef %3) #0 {
  %.not = icmp eq ptr %1, null
  br i1 %.not, label %8, label %5

5:                                                ; preds = %4
  %6 = load i8, ptr %1, align 1, !tbaa !19
  %.not14 = icmp eq i8 %6, 0
  br i1 %.not14, label %8, label %7

7:                                                ; preds = %5
  tail call void @ERR_new() #6
  tail call void @ERR_set_debug(ptr noundef nonnull @.str, i32 noundef 163, ptr noundef nonnull @__func__.ml_dsa_digest_signverify_init) #6
  tail call void (i32, i32, ptr, ...) @ERR_set_error(i32 noundef 57, i32 noundef 122, ptr noundef nonnull @.str.3) #6
  br label %17

8:                                                ; preds = %5, %4
  %9 = getelementptr inbounds nuw i8, ptr %0, i64 600
  store i32 0, ptr %9, align 8, !tbaa !17
  %10 = icmp eq ptr %2, null
  br i1 %10, label %12, label %.split

.split:                                           ; preds = %8
  %11 = tail call fastcc i32 @ml_dsa_signverify_msg_init(ptr noundef nonnull %0, ptr noundef nonnull %2, ptr noundef %3)
  br label %17

12:                                               ; preds = %8
  %13 = load ptr, ptr %0, align 8, !tbaa !16
  %.not15 = icmp eq ptr %13, null
  br i1 %.not15, label %.split11, label %15

.split11:                                         ; preds = %12
  %14 = tail call fastcc i32 @ml_dsa_signverify_msg_init(ptr noundef nonnull %0, ptr noundef null, ptr noundef %3)
  br label %17

15:                                               ; preds = %12
  %16 = tail call i32 @ml_dsa_set_ctx_params(ptr noundef nonnull %0, ptr noundef %3)
  br label %17

17:                                               ; preds = %.split, %.split11, %15, %7
  %.0 = phi i32 [ 0, %7 ], [ %16, %15 ], [ %11, %.split ], [ %14, %.split11 ]
  ret i32 %.0
}